; Function Attrs: nounwind uwtable
define range(i32 -3, 1) i32 @CVSpilsSetMaxl(ptr noundef %0, i32 noundef %1) local_unnamed_addr #0 {
  %3 = icmp eq ptr %0, null
  br i1 %3, label %4, label %5

4:                                                ; preds = %2
  tail call void (ptr, i32, ptr, ptr, ptr, ...) @cvProcessError(ptr noundef null, i32 noundef -1, ptr noundef nonnull @.str, ptr noundef nonnull @.str.8, ptr noundef nonnull @.str.2) #5
  br label %18

5:                                                ; preds = %2
  %6 = getelementptr inbounds nuw i8, ptr %0, i64 1696
  %7 = load ptr, ptr %6, align 8, !tbaa !3
  %8 = icmp eq ptr %7, null
  br i1 %8, label %9, label %10

9:                                                ; preds = %5
  tail call void (ptr, i32, ptr, ptr, ptr, ...) @cvProcessError(ptr noundef null, i32 noundef -2, ptr noundef nonnull @.str, ptr noundef nonnull @.str.8, ptr noundef nonnull @.str.3) #5
  br label %18

10:                                               ; preds = %5
  %11 = load i32, ptr %7, align 8, !tbaa !20
  %12 = icmp eq i32 %11, 1
  br i1 %12, label %13, label %14

13:                                               ; preds = %10
  tail call void (ptr, i32, ptr, ptr, ptr, ...) @cvProcessError(ptr noundef nonnull %0, i32 noundef -3, ptr noundef nonnull @.str, ptr noundef nonnull @.str.8, ptr noundef nonnull @.str.6) #5
  br label %18

14:                                               ; preds = %10
  %15 = icmp slt i32 %1, 1
  %16 = select i1 %15, i32 5, i32 %1
  %17 = getelementptr inbounds nuw i8, ptr %7, i64 48
  store i32 %16, ptr %17, align 8, !tbaa !22
  br label %18

18:                                               ; preds = %14, %13, %9, %4
  %.0 = phi i32 [ -1, %4 ], [ -2, %9 ], [ -3, %13 ], [ 0, %14 ]
  ret i32 %.0
}